target datalayout = "e-m:e-p270:32:32-p271:32:32-p272:64:64-i64:64-i128:128-f80:128-n8:16:32:64-S128"
target triple = "x86_64-pc-linux-gnu"

; Function Attrs: nounwind uwtable
define internal i32 @blendRGB(i32 noundef %0, i32 noundef %1, i32 noundef %2) #0 {
  %4 = alloca i32, align 4
  %5 = alloca i32, align 4
  %6 = alloca i32, align 4
  %7 = alloca i32, align 4
  %8 = alloca i32, align 4
  store i32 %0, ptr %4, align 4
  store i32 %1, ptr %5, align 4
  store i32 %2, ptr %6, align 4
  %9 = load i32, ptr %6, align 4
  store i32 %9, ptr %7, align 4
  %10 = load i32, ptr %6, align 4
  %11 = sub i32 255, %10
  store i32 %11, ptr %8, align 4
  %12 = load i32, ptr %5, align 4
  %13 = and i32 %12, 16711680
  %14 = lshr i32 %13, 16
  %15 = load i32, ptr %7, align 4
  %16 = mul i32 %14, %15
  %17 = load i32, ptr %4, align 4
  %18 = and i32 %17, 16711680
  %19 = lshr i32 %18, 16
  %20 = load i32, ptr %8, align 4
  %21 = mul i32 %19, %20
  %22 = add i32 %16, %21
  %23 = udiv i32 %22, 255
  %24 = shl i32 %23, 16
  %25 = and i32 %24, 16711680
  %26 = or i32 0, %25
  %27 = load i32, ptr %5, align 4
  %28 = and i32 %27, 65280
  %29 = lshr i32 %28, 8
  %30 = load i32, ptr %7, align 4
  %31 = mul i32 %29, %30
  %32 = load i32, ptr %4, align 4
  %33 = and i32 %32, 65280
  %34 = lshr i32 %33, 8
  %35 = load i32, ptr %8, align 4
  %36 = mul i32 %34, %35
  %37 = add i32 %31, %36
  %38 = udiv i32 %37, 255
  %39 = shl i32 %38, 8
  %40 = and i32 %39, 65280
  %41 = or i32 %26, %40
  %42 = load i32, ptr %5, align 4
  %43 = and i32 %42, 255
  %44 = lshr i32 %43, 0
  %45 = load i32, ptr %7, align 4
  %46 = mul i32 %44, %45
  %47 = load i32, ptr %4, align 4
  %48 = and i32 %47, 255
  %49 = lshr i32 %48, 0
  %50 = load i32, ptr %8, align 4
  %51 = mul i32 %49, %50
  %52 = add i32 %46, %51
  %53 = udiv i32 %52, 255
  %54 = shl i32 %53, 0
  %55 = and i32 %54, 255
  %56 = or i32 %41, %55
  ret i32 %56
}

; Function Attrs: nounwind uwtable
define hidden void @convertLine(ptr noundef %0, i32 noundef %1, ptr noundef %2, i32 noundef %3, i32 noundef %4, ptr noundef %5, ptr noundef %6, i32 noundef %7, ptr noundef %8, i32 noundef %9, ptr noundef %10, i32 noundef %11, i32 noundef %12) #0 {
  %14 = alloca ptr, align 8
  %15 = alloca i32, align 4
  %16 = alloca ptr, align 8
  %17 = alloca i32, align 4
  %18 = alloca i32, align 4
  %19 = alloca ptr, align 8
  %20 = alloca ptr, align 8
  %21 = alloca i32, align 4
  %22 = alloca ptr, align 8
  %23 = alloca i32, align 4
  %24 = alloca ptr, align 8
  %25 = alloca i32, align 4
  %26 = alloca i32, align 4
  %27 = alloca i32, align 4
  %28 = alloca i32, align 4
  %29 = alloca i32, align 4
  %30 = alloca i32, align 4
  store ptr %0, ptr %14, align 8
  store i32 %1, ptr %15, align 4
  store ptr %2, ptr %16, align 8
  store i32 %3, ptr %17, align 4
  store i32 %4, ptr %18, align 4
  store ptr %5, ptr %19, align 8
  store ptr %6, ptr %20, align 8
  store i32 %7, ptr %21, align 4
  store ptr %8, ptr %22, align 8
  store i32 %9, ptr %23, align 4
  store ptr %10, ptr %24, align 8
  store i32 %11, ptr %25, align 4
  store i32 %12, ptr %26, align 4
  %31 = load i32, ptr %21, align 4
  switch i32 %31, label %131 [
    i32 0, label %32
    i32 1, label %58
    i32 2, label %89
  ]

32:                                               ; preds = %13
  store i32 0, ptr %27, align 4
  br label %33

33:                                               ; preds = %54, %32
  %34 = load i32, ptr %27, align 4
  %35 = load i32, ptr %18, align 4
  %36 = icmp slt i32 %34, %35
  br i1 %36, label %37, label %57

37:                                               ; preds = %33
  %38 = load ptr, ptr %14, align 8
  %39 = load ptr, ptr %19, align 8
  %40 = call i32 @getRGBA(ptr noundef %38, ptr noundef %39)
  %41 = load ptr, ptr %16, align 8
  %42 = load ptr, ptr %20, align 8
  %43 = load i32, ptr %25, align 4
  %44 = load i32, ptr %26, align 4
  %45 = add nsw i32 %44, 1
  store i32 %45, ptr %26, align 4
  call void @putRGBADither(i32 noundef %40, ptr noundef %41, ptr noundef %42, i32 noundef %43, i32 noundef %44)
  %46 = load ptr, ptr %14, align 8
  %47 = load i32, ptr %15, align 4
  %48 = sext i32 %47 to i64
  %49 = getelementptr inbounds i8, ptr %46, i64 %48
  store ptr %49, ptr %14, align 8
  %50 = load ptr, ptr %16, align 8
  %51 = load i32, ptr %17, align 4
  %52 = sext i32 %51 to i64
  %53 = getelementptr inbounds i8, ptr %50, i64 %52
  store ptr %53, ptr %16, align 8
  br label %54

54:                                               ; preds = %37
  %55 = load i32, ptr %27, align 4
  %56 = add nsw i32 %55, 1
  store i32 %56, ptr %27, align 4
  br label %33, !llvm.loop !13

57:                                               ; preds = %33
  br label %131

58:                                               ; preds = %13
  store i32 0, ptr %27, align 4
  br label %59

59:                                               ; preds = %85, %58
  %60 = load i32, ptr %27, align 4
  %61 = load i32, ptr %18, align 4
  %62 = icmp slt i32 %60, %61
  br i1 %62, label %63, label %88

63:                                               ; preds = %59
  %64 = load ptr, ptr %14, align 8
  %65 = load ptr, ptr %19, align 8
  %66 = call i32 @getRGBA(ptr noundef %64, ptr noundef %65)
  store i32 %66, ptr %28, align 4
  %67 = load i32, ptr %28, align 4
  %68 = icmp uge i32 %67, -2147483648
  br i1 %68, label %69, label %76

69:                                               ; preds = %63
  %70 = load i32, ptr %28, align 4
  %71 = load ptr, ptr %16, align 8
  %72 = load ptr, ptr %20, align 8
  %73 = load i32, ptr %25, align 4
  %74 = load i32, ptr %26, align 4
  %75 = add nsw i32 %74, 1
  store i32 %75, ptr %26, align 4
  call void @putRGBADither(i32 noundef %70, ptr noundef %71, ptr noundef %72, i32 noundef %73, i32 noundef %74)
  br label %76

76:                                               ; preds = %69, %63
  %77 = load ptr, ptr %14, align 8
  %78 = load i32, ptr %15, align 4
  %79 = sext i32 %78 to i64
  %80 = getelementptr inbounds i8, ptr %77, i64 %79
  store ptr %80, ptr %14, align 8
  %81 = load ptr, ptr %16, align 8
  %82 = load i32, ptr %17, align 4
  %83 = sext i32 %82 to i64
  %84 = getelementptr inbounds i8, ptr %81, i64 %83
  store ptr %84, ptr %16, align 8
  br label %85

85:                                               ; preds = %76
  %86 = load i32, ptr %27, align 4
  %87 = add nsw i32 %86, 1
  store i32 %87, ptr %27, align 4
  br label %59, !llvm.loop !14

88:                                               ; preds = %59
  br label %131

89:                                               ; preds = %13
  store i32 0, ptr %27, align 4
  br label %90

90:                                               ; preds = %127, %89
  %91 = load i32, ptr %27, align 4
  %92 = load i32, ptr %18, align 4
  %93 = icmp slt i32 %91, %92
  br i1 %93, label %94, label %130

94:                                               ; preds = %90
  %95 = load ptr, ptr %14, align 8
  %96 = load ptr, ptr %19, align 8
  %97 = call i32 @getRGBA(ptr noundef %95, ptr noundef %96)
  store i32 %97, ptr %29, align 4
  %98 = load ptr, ptr %22, align 8
  %99 = load ptr, ptr %19, align 8
  %100 = call i32 @getRGBA(ptr noundef %98, ptr noundef %99)
  store i32 %100, ptr %30, align 4
  %101 = load i32, ptr %29, align 4
  %102 = load i32, ptr %30, align 4
  %103 = load i32, ptr %30, align 4
  %104 = and i32 %103, -16777216
  %105 = lshr i32 %104, 24
  %106 = call i32 @blendRGB(i32 noundef %101, i32 noundef %102, i32 noundef %105)
  %107 = load i32, ptr %29, align 4
  %108 = and i32 %107, -16777216
  %109 = or i32 %106, %108
  %110 = load ptr, ptr %16, align 8
  %111 = load ptr, ptr %20, align 8
  %112 = load i32, ptr %25, align 4
  %113 = load i32, ptr %26, align 4
  %114 = add nsw i32 %113, 1
  store i32 %114, ptr %26, align 4
  call void @putRGBADither(i32 noundef %109, ptr noundef %110, ptr noundef %111, i32 noundef %112, i32 noundef %113)
  %115 = load ptr, ptr %14, align 8
  %116 = load i32, ptr %15, align 4
  %117 = sext i32 %116 to i64
  %118 = getelementptr inbounds i8, ptr %115, i64 %117
  store ptr %118, ptr %14, align 8
  %119 = load ptr, ptr %16, align 8
  %120 = load i32, ptr %17, align 4
  %121 = sext i32 %120 to i64
  %122 = getelementptr inbounds i8, ptr %119, i64 %121
  store ptr %122, ptr %16, align 8
  %123 = load ptr, ptr %22, align 8
  %124 = load i32, ptr %23, align 4
  %125 = sext i32 %124 to i64
  %126 = getelementptr inbounds i8, ptr %123, i64 %125
  store ptr %126, ptr %22, align 8
  br label %127

127:                                              ; preds = %94
  %128 = load i32, ptr %27, align 4
  %129 = add nsw i32 %128, 1
  store i32 %129, ptr %27, align 4
  br label %90, !llvm.loop !15

130:                                              ; preds = %90
  br label %131

131:                                              ; preds = %130, %88, %57, %13
  ret void
}