; Function Attrs: nofree norecurse nosync nounwind memory(readwrite, inaccessiblemem: none) uwtable
define hidden void @convertLine(ptr nocapture noundef readonly %0, i32 noundef %1, ptr nocapture noundef writeonly %2, i32 noundef %3, i32 noundef %4, ptr nocapture noundef readonly %5, ptr nocapture noundef readonly %6, i32 noundef %7, ptr nocapture noundef readonly %8, i32 noundef %9, ptr nocapture readnone %10, i32 noundef %11, i32 noundef %12) local_unnamed_addr #2 {
  switch i32 %7, label %.loopexit [
    i32 0, label %.preheader
    i32 1, label %.preheader60
    i32 2, label %.preheader62
  ]

.preheader62:                                     ; preds = %13
  %14 = icmp sgt i32 %4, 0
  br i1 %14, label %.lr.ph, label %.loopexit

.lr.ph:                                           ; preds = %.preheader62
  %15 = sext i32 %1 to i64
  %16 = sext i32 %3 to i64
  %17 = sext i32 %9 to i64
  br label %39

.preheader60:                                     ; preds = %13
  %18 = icmp sgt i32 %4, 0
  br i1 %18, label %.lr.ph73, label %.loopexit

.lr.ph73:                                         ; preds = %.preheader60
  %19 = sext i32 %1 to i64
  %20 = sext i32 %3 to i64
  br label %30

.preheader:                                       ; preds = %13
  %21 = icmp sgt i32 %4, 0
  br i1 %21, label %.lr.ph78, label %.loopexit

.lr.ph78:                                         ; preds = %.preheader
  %22 = sext i32 %1 to i64
  %23 = sext i32 %3 to i64
  br label %24

24:                                               ; preds = %.lr.ph78, %24
  %.077 = phi ptr [ %0, %.lr.ph78 ], [ %27, %24 ]
  %.04976 = phi ptr [ %2, %.lr.ph78 ], [ %28, %24 ]
  %.05375 = phi i32 [ 0, %.lr.ph78 ], [ %29, %24 ]
  %.05674 = phi i32 [ %12, %.lr.ph78 ], [ %26, %24 ]
  %25 = tail call fastcc i32 @getRGBA(ptr noundef %.077, ptr noundef %5)
  %26 = add nsw i32 %.05674, 1
  tail call fastcc void @putRGBADither(i32 noundef %25, ptr noundef %.04976, ptr noundef %6, i32 noundef %11, i32 noundef %.05674)
  %27 = getelementptr inbounds i8, ptr %.077, i64 %22
  %28 = getelementptr inbounds i8, ptr %.04976, i64 %23
  %29 = add nuw nsw i32 %.05375, 1
  %exitcond82.not = icmp eq i32 %29, %4
  br i1 %exitcond82.not, label %.loopexit, label %24, !llvm.loop !14

30:                                               ; preds = %.lr.ph73, %35
  %.172 = phi ptr [ %0, %.lr.ph73 ], [ %36, %35 ]
  %.15071 = phi ptr [ %2, %.lr.ph73 ], [ %37, %35 ]
  %.15470 = phi i32 [ 0, %.lr.ph73 ], [ %38, %35 ]
  %.15769 = phi i32 [ %12, %.lr.ph73 ], [ %.258, %35 ]
  %31 = tail call fastcc i32 @getRGBA(ptr noundef %.172, ptr noundef %5)
  %32 = icmp slt i32 %31, 0
  br i1 %32, label %33, label %35

33:                                               ; preds = %30
  %34 = add nsw i32 %.15769, 1
  tail call fastcc void @putRGBADither(i32 noundef %31, ptr noundef %.15071, ptr noundef %6, i32 noundef %11, i32 noundef %.15769)
  br label %35

35:                                               ; preds = %33, %30
  %.258 = phi i32 [ %34, %33 ], [ %.15769, %30 ]
  %36 = getelementptr inbounds i8, ptr %.172, i64 %19
  %37 = getelementptr inbounds i8, ptr %.15071, i64 %20
  %38 = add nuw nsw i32 %.15470, 1
  %exitcond81.not = icmp eq i32 %38, %4
  br i1 %exitcond81.not, label %.loopexit, label %30, !llvm.loop !15

39:                                               ; preds = %.lr.ph, %39
  %.268 = phi ptr [ %0, %.lr.ph ], [ %76, %39 ]
  %.25167 = phi ptr [ %2, %.lr.ph ], [ %77, %39 ]
  %.05266 = phi ptr [ %8, %.lr.ph ], [ %78, %39 ]
  %.25565 = phi i32 [ 0, %.lr.ph ], [ %79, %39 ]
  %.364 = phi i32 [ %12, %.lr.ph ], [ %75, %39 ]
  %40 = tail call fastcc i32 @getRGBA(ptr noundef %.268, ptr noundef %5)
  %41 = tail call fastcc i32 @getRGBA(ptr noundef %.05266, ptr noundef %5)
  %42 = lshr i32 %41, 24
  %43 = xor i32 %42, 255
  %44 = lshr i32 %41, 16
  %45 = and i32 %44, 255
  %46 = mul nuw nsw i32 %45, %42
  %47 = lshr i32 %40, 16
  %48 = and i32 %47, 255
  %49 = mul nuw nsw i32 %43, %48
  %50 = add nuw nsw i32 %46, %49
  %51 = udiv i32 %50, 255
  %52 = shl nuw nsw i32 %51, 16
  %53 = and i32 %52, 16711680
  %54 = lshr i32 %41, 8
  %55 = and i32 %54, 255
  %56 = mul nuw nsw i32 %55, %42
  %57 = lshr i32 %40, 8
  %58 = and i32 %57, 255
  %59 = mul nuw nsw i32 %43, %58
  %60 = add nuw nsw i32 %56, %59
  %61 = udiv i32 %60, 255
  %62 = shl nuw nsw i32 %61, 8
  %63 = and i32 %62, 65280
  %64 = and i32 %41, 255
  %65 = mul nuw nsw i32 %64, %42
  %66 = and i32 %40, 255
  %67 = mul nuw nsw i32 %43, %66
  %68 = add nuw nsw i32 %67, %65
  %69 = udiv i32 %68, 255
  %70 = and i32 %69, 255
  %71 = and i32 %40, -16777216
  %72 = or disjoint i32 %70, %71
  %73 = or disjoint i32 %72, %63
  %74 = or disjoint i32 %73, %53
  %75 = add nsw i32 %.364, 1
  tail call fastcc void @putRGBADither(i32 noundef %74, ptr noundef %.25167, ptr noundef %6, i32 noundef %11, i32 noundef %.364)
  %76 = getelementptr inbounds i8, ptr %.268, i64 %15
  %77 = getelementptr inbounds i8, ptr %.25167, i64 %16
  %78 = getelementptr inbounds i8, ptr %.05266, i64 %17
  %79 = add nuw nsw i32 %.25565, 1
  %exitcond.not = icmp eq i32 %79, %4
  br i1 %exitcond.not, label %.loopexit, label %39, !llvm.loop !16

.loopexit:                                        ; preds = %39, %35, %24, %.preheader62, %.preheader60, %.preheader, %13
  ret void
}